; Function Attrs: nounwind uwtable
define ptr @l_Lake_InputFileConfig_text___proj___elambda__2(ptr readnone captures(none) %0, ptr noundef %1, ptr noundef %2) local_unnamed_addr #1 {
  %.val = load i32, ptr %2, align 4, !tbaa !8
  %4 = icmp eq i32 %.val, 1
  br i1 %4, label %5, label %24

5:                                                ; preds = %3
  %6 = getelementptr inbounds nuw i8, ptr %2, i64 16
  %7 = load i8, ptr %6, align 1, !tbaa !11
  %8 = zext i8 %7 to i64
  %9 = shl nuw nsw i64 %8, 1
  %10 = or disjoint i64 %9, 1
  %11 = inttoptr i64 %10 to ptr
  %12 = tail call ptr @lean_apply_1(ptr noundef %1, ptr noundef nonnull %11) #7
  %13 = ptrtoint ptr %12 to i64
  %14 = lshr i64 %13, 1
  %15 = trunc i64 %14 to i8
  %16 = and i64 %13, 1
  %.not34 = icmp eq i64 %16, 0
  br i1 %.not34, label %17, label %lean_dec.exit26

17:                                               ; preds = %5
  %18 = load i32, ptr %12, align 4, !tbaa !8
  %19 = icmp sgt i32 %18, 1
  br i1 %19, label %20, label %22, !prof !12

20:                                               ; preds = %17
  %21 = add nsw i32 %18, -1
  store i32 %21, ptr %12, align 4, !tbaa !8
  br label %lean_dec.exit26

22:                                               ; preds = %17
  %.not.i = icmp eq i32 %18, 0
  br i1 %.not.i, label %lean_dec.exit26, label %23

23:                                               ; preds = %22
  tail call void @lean_dec_ref_cold(ptr noundef nonnull %12) #7
  br label %lean_dec.exit26

lean_dec.exit26:                                  ; preds = %23, %22, %20, %5
  store i8 %15, ptr %6, align 1, !tbaa !11
  br label %68

24:                                               ; preds = %3
  %25 = getelementptr inbounds nuw i8, ptr %2, i64 8
  %26 = load ptr, ptr %25, align 8, !tbaa !4
  %27 = getelementptr inbounds nuw i8, ptr %2, i64 16
  %28 = load i8, ptr %27, align 1, !tbaa !11
  %29 = ptrtoint ptr %26 to i64
  %30 = and i64 %29, 1
  %.not = icmp eq i64 %30, 0
  br i1 %.not, label %31, label %lean_inc.exit

31:                                               ; preds = %24
  %.val.i = load i32, ptr %26, align 4, !tbaa !8
  %32 = icmp sgt i32 %.val.i, 0
  br i1 %32, label %33, label %35, !prof !12

33:                                               ; preds = %31
  %34 = add nuw i32 %.val.i, 1
  store i32 %34, ptr %26, align 4, !tbaa !8
  br label %lean_inc.exit

35:                                               ; preds = %31
  %.not.i31 = icmp eq i32 %.val.i, 0
  br i1 %.not.i31, label %lean_inc.exit, label %36

36:                                               ; preds = %35
  tail call void @lean_inc_ref_cold(ptr noundef nonnull %26) #7
  br label %lean_inc.exit

lean_inc.exit:                                    ; preds = %36, %35, %33, %24
  %37 = ptrtoint ptr %2 to i64
  %38 = and i64 %37, 1
  %.not32 = icmp eq i64 %38, 0
  br i1 %.not32, label %39, label %lean_dec.exit25

39:                                               ; preds = %lean_inc.exit
  %40 = load i32, ptr %2, align 4, !tbaa !8
  %41 = icmp sgt i32 %40, 1
  br i1 %41, label %42, label %44, !prof !12

42:                                               ; preds = %39
  %43 = add nsw i32 %40, -1
  store i32 %43, ptr %2, align 4, !tbaa !8
  br label %lean_dec.exit25

44:                                               ; preds = %39
  %.not.i27 = icmp eq i32 %40, 0
  br i1 %.not.i27, label %lean_dec.exit25, label %45

45:                                               ; preds = %44
  tail call void @lean_dec_ref_cold(ptr noundef nonnull %2) #7
  br label %lean_dec.exit25

lean_dec.exit25:                                  ; preds = %45, %44, %42, %lean_inc.exit
  %46 = zext i8 %28 to i64
  %47 = shl nuw nsw i64 %46, 1
  %48 = or disjoint i64 %47, 1
  %49 = inttoptr i64 %48 to ptr
  %50 = tail call ptr @lean_apply_1(ptr noundef %1, ptr noundef nonnull %49) #7
  %51 = ptrtoint ptr %50 to i64
  %52 = lshr i64 %51, 1
  %53 = trunc i64 %52 to i8
  %54 = and i64 %51, 1
  %.not33 = icmp eq i64 %54, 0
  br i1 %.not33, label %55, label %lean_dec.exit

55:                                               ; preds = %lean_dec.exit25
  %56 = load i32, ptr %50, align 4, !tbaa !8
  %57 = icmp sgt i32 %56, 1
  br i1 %57, label %58, label %60, !prof !12

58:                                               ; preds = %55
  %59 = add nsw i32 %56, -1
  store i32 %59, ptr %50, align 4, !tbaa !8
  br label %lean_dec.exit

60:                                               ; preds = %55
  %.not.i29 = icmp eq i32 %56, 0
  br i1 %.not.i29, label %lean_dec.exit, label %61

61:                                               ; preds = %60
  tail call void @lean_dec_ref_cold(ptr noundef nonnull %50) #7
  br label %lean_dec.exit

lean_dec.exit:                                    ; preds = %61, %60, %58, %lean_dec.exit25
  tail call void @lean_inc_heartbeat() #7
  %62 = tail call noalias ptr @mi_malloc_small(i64 noundef 24) #7
  %63 = icmp eq ptr %62, null
  br i1 %63, label %64, label %lean_alloc_ctor.exit

64:                                               ; preds = %lean_dec.exit
  tail call void @lean_internal_panic_out_of_memory() #8
  unreachable

lean_alloc_ctor.exit:                             ; preds = %lean_dec.exit
  %65 = getelementptr inbounds nuw i8, ptr %62, i64 4
  %66 = getelementptr inbounds nuw i8, ptr %62, i64 16
  store i64 0, ptr %66, align 8, !tbaa !13
  store i32 1, ptr %62, align 4, !tbaa !8
  store i32 65560, ptr %65, align 4
  %67 = getelementptr inbounds nuw i8, ptr %62, i64 8
  store ptr %26, ptr %67, align 8, !tbaa !4
  store i8 %53, ptr %66, align 1, !tbaa !11
  br label %68

68:                                               ; preds = %lean_alloc_ctor.exit, %lean_dec.exit26
  %.0 = phi ptr [ %2, %lean_dec.exit26 ], [ %62, %lean_alloc_ctor.exit ]
  ret ptr %.0
}